; Function Attrs: mustprogress nounwind uwtable
define hidden noundef ptr @_ZN20VectorMaskToLongNode8IdentityEP8PhaseGVN(ptr noundef nonnull readonly align 8 dereferenceable(80) %0, ptr nocapture noundef readnone %1) unnamed_addr #1 align 2 {
  %3 = getelementptr inbounds i8, ptr %0, i64 8
  %4 = load ptr, ptr %3, align 8
  %5 = getelementptr inbounds i8, ptr %4, i64 8
  %6 = load ptr, ptr %5, align 8
  %7 = load ptr, ptr %6, align 8
  %8 = load ptr, ptr %7, align 8
  %9 = tail call noundef i32 %8(ptr noundef nonnull align 8 dereferenceable(52) %6) #8
  %10 = icmp eq i32 %9, 442
  br i1 %10, label %11, label %19

11:                                               ; preds = %2
  %12 = load ptr, ptr %3, align 8
  %13 = getelementptr inbounds i8, ptr %12, i64 8
  %14 = load ptr, ptr %13, align 8
  %15 = getelementptr inbounds i8, ptr %14, i64 8
  %16 = load ptr, ptr %15, align 8
  %17 = getelementptr inbounds i8, ptr %16, i64 8
  %18 = load ptr, ptr %17, align 8
  br label %19

19:                                               ; preds = %2, %11
  %.0 = phi ptr [ %18, %11 ], [ %0, %2 ]
  ret ptr %.0
}